target datalayout = "e-m:e-p270:32:32-p271:32:32-p272:64:64-i64:64-i128:128-f80:128-n8:16:32:64-S128"
target triple = "x86_64-pc-linux-gnu"

%"class.llvm::CCState" = type <{ i32, i8, i8, [2 x i8], ptr, ptr, ptr, ptr, i8, [7 x i8], i64, %"struct.llvm::Align", [7 x i8], %"class.llvm::SmallVector", %"class.llvm::SmallVector.0", %"class.llvm::SmallVector.5", %"class.llvm::SmallVector.10", i32, [4 x i8] }>
%"struct.llvm::Align" = type { i8 }
%"class.llvm::SmallVector" = type { %"class.llvm::SmallVectorImpl", %"struct.llvm::SmallVectorStorage" }
%"class.llvm::SmallVectorImpl" = type { %"class.llvm::SmallVectorTemplateBase" }
%"class.llvm::SmallVectorTemplateBase" = type { %"class.llvm::SmallVectorTemplateCommon" }
%"class.llvm::SmallVectorTemplateCommon" = type { %"class.llvm::SmallVectorBase" }
%"class.llvm::SmallVectorBase" = type { ptr, i32, i32 }
%"struct.llvm::SmallVectorStorage" = type { [64 x i8] }
%"class.llvm::SmallVector.0" = type { %"class.llvm::SmallVectorImpl.1", %"struct.llvm::SmallVectorStorage.4" }
%"class.llvm::SmallVectorImpl.1" = type { %"class.llvm::SmallVectorTemplateBase.2" }
%"class.llvm::SmallVectorTemplateBase.2" = type { %"class.llvm::SmallVectorTemplateCommon.3" }
%"class.llvm::SmallVectorTemplateCommon.3" = type { %"class.llvm::SmallVectorBase" }
%"struct.llvm::SmallVectorStorage.4" = type { [128 x i8] }
%"class.llvm::SmallVector.5" = type { %"class.llvm::SmallVectorImpl.6", %"struct.llvm::SmallVectorStorage.9" }
%"class.llvm::SmallVectorImpl.6" = type { %"class.llvm::SmallVectorTemplateBase.7" }
%"class.llvm::SmallVectorTemplateBase.7" = type { %"class.llvm::SmallVectorTemplateCommon.8" }
%"class.llvm::SmallVectorTemplateCommon.8" = type { %"class.llvm::SmallVectorBase" }
%"struct.llvm::SmallVectorStorage.9" = type { [64 x i8] }
%"class.llvm::SmallVector.10" = type { %"class.llvm::SmallVectorImpl.11", %"struct.llvm::SmallVectorStorage.14" }
%"class.llvm::SmallVectorImpl.11" = type { %"class.llvm::SmallVectorTemplateBase.12" }
%"class.llvm::SmallVectorTemplateBase.12" = type { %"class.llvm::SmallVectorTemplateCommon.13" }
%"class.llvm::SmallVectorTemplateCommon.13" = type { %"class.llvm::SmallVectorBase" }
%"struct.llvm::SmallVectorStorage.14" = type { [32 x i8] }
%"class.llvm::MCRegister" = type { i32 }
%"class.llvm::MCRegAliasIterator" = type { ptr, ptr }
%"class.llvm::ArrayRef.145" = type { ptr, i64 }

; Function Attrs: mustprogress nounwind uwtable
define linkonce_odr hidden noundef ptr @_ZN4llvm25SmallVectorTemplateCommonIjvE5beginEv(ptr noundef nonnull align 8 dereferenceable(16) %0) #0 comdat align 2 {
  %2 = alloca ptr, align 8
  store ptr %0, ptr %2, align 8
  %3 = load ptr, ptr %2, align 8
  %4 = getelementptr inbounds nuw %"class.llvm::SmallVectorBase", ptr %3, i32 0, i32 0
  %5 = load ptr, ptr %4, align 8
  ret ptr %5
}

; Function Attrs: mustprogress nounwind uwtable
define linkonce_odr hidden noundef ptr @_ZNK4llvm8ArrayRefItE3endEv(ptr noundef nonnull align 8 dereferenceable(16) %0) #0 comdat align 2 {
  %2 = alloca ptr, align 8
  store ptr %0, ptr %2, align 8
  %3 = load ptr, ptr %2, align 8
  %4 = getelementptr inbounds nuw %"class.llvm::ArrayRef.145", ptr %3, i32 0, i32 0
  %5 = load ptr, ptr %4, align 8
  %6 = getelementptr inbounds nuw %"class.llvm::ArrayRef.145", ptr %3, i32 0, i32 1
  %7 = load i64, ptr %6, align 8
  %8 = getelementptr inbounds i16, ptr %5, i64 %7
  ret ptr %8
}

; Function Attrs: mustprogress nounwind uwtable
define linkonce_odr hidden noundef ptr @_ZNK4llvm8ArrayRefItE5beginEv(ptr noundef nonnull align 8 dereferenceable(16) %0) #0 comdat align 2 {
  %2 = alloca ptr, align 8
  store ptr %0, ptr %2, align 8
  %3 = load ptr, ptr %2, align 8
  %4 = getelementptr inbounds nuw %"class.llvm::ArrayRef.145", ptr %3, i32 0, i32 0
  %5 = load ptr, ptr %4, align 8
  ret ptr %5
}

; Function Attrs: mustprogress nounwind uwtable
define linkonce_odr hidden noundef nonnull align 8 dereferenceable(16) ptr @_ZN4llvm18MCRegAliasIteratorppEv(ptr noundef nonnull align 8 dereferenceable(16) %0) #0 comdat align 2 {
  %2 = alloca ptr, align 8
  store ptr %0, ptr %2, align 8
  %3 = load ptr, ptr %2, align 8
  %4 = getelementptr inbounds nuw %"class.llvm::MCRegAliasIterator", ptr %3, i32 0, i32 0
  %5 = load ptr, ptr %4, align 8
  %6 = getelementptr inbounds i16, ptr %5, i32 1
  store ptr %6, ptr %4, align 8
  ret ptr %3
}

; Function Attrs: mustprogress nounwind uwtable
define linkonce_odr hidden noundef nonnull align 4 dereferenceable(4) ptr @_ZN4llvm25SmallVectorTemplateCommonIjvEixEm(ptr noundef nonnull align 8 dereferenceable(16) %0, i64 noundef %1) #0 comdat align 2 {
  %3 = alloca ptr, align 8
  %4 = alloca i64, align 8
  store ptr %0, ptr %3, align 8
  store i64 %1, ptr %4, align 8
  %5 = load ptr, ptr %3, align 8
  %6 = call noundef ptr @_ZN4llvm25SmallVectorTemplateCommonIjvE5beginEv(ptr noundef nonnull align 8 dereferenceable(16) %5)
  %7 = load i64, ptr %4, align 8
  %8 = getelementptr inbounds i32, ptr %6, i64 %7
  ret ptr %8
}

; Function Attrs: mustprogress nounwind uwtable
define linkonce_odr hidden noundef i32 @_ZNK4llvm10MCRegistercvjEv(ptr noundef nonnull align 4 dereferenceable(4) %0) #0 comdat align 2 {
  %2 = alloca ptr, align 8
  store ptr %0, ptr %2, align 8
  %3 = load ptr, ptr %2, align 8
  %4 = getelementptr inbounds nuw %"class.llvm::MCRegister", ptr %3, i32 0, i32 0
  %5 = load i32, ptr %4, align 4
  ret i32 %5
}

; Function Attrs: mustprogress nounwind uwtable
define linkonce_odr hidden i32 @_ZNK4llvm18MCRegAliasIteratordeEv(ptr noundef nonnull align 8 dereferenceable(16) %0) #0 comdat align 2 {
  %2 = alloca %"class.llvm::MCRegister", align 4
  %3 = alloca ptr, align 8
  store ptr %0, ptr %3, align 8
  %4 = load ptr, ptr %3, align 8
  %5 = getelementptr inbounds nuw %"class.llvm::MCRegAliasIterator", ptr %4, i32 0, i32 0
  %6 = load ptr, ptr %5, align 8
  %7 = load i16, ptr %6, align 2
  %8 = zext i16 %7 to i32
  call void @_ZN4llvm10MCRegisterC2Ej(ptr noundef nonnull align 4 dereferenceable(4) %2, i32 noundef %8)
  %9 = getelementptr inbounds nuw %"class.llvm::MCRegister", ptr %2, i32 0, i32 0
  %10 = load i32, ptr %9, align 4
  ret i32 %10
}

; Function Attrs: mustprogress nounwind uwtable
define linkonce_odr hidden noundef zeroext i1 @_ZNK4llvm18MCRegAliasIterator7isValidEv(ptr noundef nonnull align 8 dereferenceable(16) %0) #0 comdat align 2 {
  %2 = alloca ptr, align 8
  store ptr %0, ptr %2, align 8
  %3 = load ptr, ptr %2, align 8
  %4 = getelementptr inbounds nuw %"class.llvm::MCRegAliasIterator", ptr %3, i32 0, i32 0
  %5 = load ptr, ptr %4, align 8
  %6 = getelementptr inbounds nuw %"class.llvm::MCRegAliasIterator", ptr %3, i32 0, i32 1
  %7 = load ptr, ptr %6, align 8
  %8 = icmp ne ptr %5, %7
  ret i1 %8
}

; Function Attrs: mustprogress nounwind uwtable
define linkonce_odr hidden void @_ZN4llvm18MCRegAliasIteratorC2ENS_10MCRegisterEPKNS_14MCRegisterInfoEb(ptr noundef nonnull align 8 dereferenceable(16) %0, i32 %1, ptr noundef %2, i1 noundef zeroext %3) unnamed_addr #0 comdat align 2 {
  %5 = alloca %"class.llvm::MCRegister", align 4
  %6 = alloca ptr, align 8
  %7 = alloca ptr, align 8
  %8 = alloca i8, align 1
  %9 = alloca %"class.llvm::ArrayRef.145", align 8
  %10 = getelementptr inbounds nuw %"class.llvm::MCRegister", ptr %5, i32 0, i32 0
  store i32 %1, ptr %10, align 4
  store ptr %0, ptr %6, align 8
  store ptr %2, ptr %7, align 8
  %11 = zext i1 %3 to i8
  store i8 %11, ptr %8, align 1
  %12 = load ptr, ptr %6, align 8
  %13 = getelementptr inbounds nuw %"class.llvm::MCRegAliasIterator", ptr %12, i32 0, i32 0
  store ptr null, ptr %13, align 8
  %14 = getelementptr inbounds nuw %"class.llvm::MCRegAliasIterator", ptr %12, i32 0, i32 1
  store ptr null, ptr %14, align 8
  %15 = load ptr, ptr %7, align 8
  %16 = call noundef i32 @_ZNK4llvm10MCRegistercvjEv(ptr noundef nonnull align 4 dereferenceable(4) %5)
  %17 = trunc i32 %16 to i16
  %18 = call { ptr, i64 } @_ZNK4llvm14MCRegisterInfo18getCachedAliasesOfEt(ptr noundef nonnull align 8 dereferenceable(224) %15, i16 noundef zeroext %17)
  %19 = getelementptr inbounds nuw { ptr, i64 }, ptr %9, i32 0, i32 0
  %20 = extractvalue { ptr, i64 } %18, 0
  store ptr %20, ptr %19, align 8
  %21 = getelementptr inbounds nuw { ptr, i64 }, ptr %9, i32 0, i32 1
  %22 = extractvalue { ptr, i64 } %18, 1
  store i64 %22, ptr %21, align 8
  %23 = call noundef ptr @_ZNK4llvm8ArrayRefItE5beginEv(ptr noundef nonnull align 8 dereferenceable(16) %9)
  %24 = getelementptr inbounds nuw %"class.llvm::MCRegAliasIterator", ptr %12, i32 0, i32 0
  store ptr %23, ptr %24, align 8
  %25 = call noundef ptr @_ZNK4llvm8ArrayRefItE3endEv(ptr noundef nonnull align 8 dereferenceable(16) %9)
  %26 = getelementptr inbounds nuw %"class.llvm::MCRegAliasIterator", ptr %12, i32 0, i32 1
  store ptr %25, ptr %26, align 8
  %27 = load i8, ptr %8, align 1
  %28 = trunc i8 %27 to i1
  br i1 %28, label %33, label %29

29:                                               ; preds = %4
  %30 = getelementptr inbounds nuw %"class.llvm::MCRegAliasIterator", ptr %12, i32 0, i32 1
  %31 = load ptr, ptr %30, align 8
  %32 = getelementptr inbounds i16, ptr %31, i32 -1
  store ptr %32, ptr %30, align 8
  br label %33

33:                                               ; preds = %29, %4
  ret void
}

; Function Attrs: mustprogress nounwind uwtable
define linkonce_odr hidden void @_ZN4llvm10MCRegisterC2Ej(ptr noundef nonnull align 4 dereferenceable(4) %0, i32 noundef %1) unnamed_addr #0 comdat align 2 {
  %3 = alloca ptr, align 8
  %4 = alloca i32, align 4
  store ptr %0, ptr %3, align 8
  store i32 %1, ptr %4, align 4
  %5 = load ptr, ptr %3, align 8
  %6 = getelementptr inbounds nuw %"class.llvm::MCRegister", ptr %5, i32 0, i32 0
  %7 = load i32, ptr %4, align 4
  store i32 %7, ptr %6, align 4
  ret void
}

; Function Attrs: mustprogress nounwind uwtable
define dso_local void @_ZN4llvm7CCState13MarkAllocatedEt(ptr noundef nonnull align 8 dereferenceable(420) %0, i16 noundef zeroext %1) #0 align 2 {
  %3 = alloca ptr, align 8
  %4 = alloca i16, align 2
  %5 = alloca %"class.llvm::MCRegAliasIterator", align 8
  %6 = alloca %"class.llvm::MCRegister", align 4
  %7 = alloca %"class.llvm::MCRegister", align 4
  %8 = alloca %"class.llvm::MCRegister", align 4
  store ptr %0, ptr %3, align 8
  store i16 %1, ptr %4, align 2
  %9 = load ptr, ptr %3, align 8
  %10 = load i16, ptr %4, align 2
  %11 = zext i16 %10 to i32
  call void @_ZN4llvm10MCRegisterC2Ej(ptr noundef nonnull align 4 dereferenceable(4) %6, i32 noundef %11)
  %12 = getelementptr inbounds nuw %"class.llvm::CCState", ptr %9, i32 0, i32 5
  %13 = load ptr, ptr %12, align 8
  %14 = icmp eq ptr %13, null
  br i1 %14, label %17, label %15

15:                                               ; preds = %2
  %16 = getelementptr inbounds i8, ptr %13, i64 8
  br label %17

17:                                               ; preds = %15, %2
  %18 = phi ptr [ %16, %15 ], [ null, %2 ]
  %19 = getelementptr inbounds nuw %"class.llvm::MCRegister", ptr %6, i32 0, i32 0
  %20 = load i32, ptr %19, align 4
  call void @_ZN4llvm18MCRegAliasIteratorC2ENS_10MCRegisterEPKNS_14MCRegisterInfoEb(ptr noundef nonnull align 8 dereferenceable(16) %5, i32 %20, ptr noundef %18, i1 noundef zeroext true)
  br label %21

21:                                               ; preds = %38, %17
  %22 = call noundef zeroext i1 @_ZNK4llvm18MCRegAliasIterator7isValidEv(ptr noundef nonnull align 8 dereferenceable(16) %5)
  br i1 %22, label %23, label %40

23:                                               ; preds = %21
  %24 = call i32 @_ZNK4llvm18MCRegAliasIteratordeEv(ptr noundef nonnull align 8 dereferenceable(16) %5)
  %25 = getelementptr inbounds nuw %"class.llvm::MCRegister", ptr %7, i32 0, i32 0
  store i32 %24, ptr %25, align 4
  %26 = call noundef i32 @_ZNK4llvm10MCRegistercvjEv(ptr noundef nonnull align 4 dereferenceable(4) %7)
  %27 = and i32 %26, 31
  %28 = shl i32 1, %27
  %29 = getelementptr inbounds nuw %"class.llvm::CCState", ptr %9, i32 0, i32 13
  %30 = call i32 @_ZNK4llvm18MCRegAliasIteratordeEv(ptr noundef nonnull align 8 dereferenceable(16) %5)
  %31 = getelementptr inbounds nuw %"class.llvm::MCRegister", ptr %8, i32 0, i32 0
  store i32 %30, ptr %31, align 4
  %32 = call noundef i32 @_ZNK4llvm10MCRegistercvjEv(ptr noundef nonnull align 4 dereferenceable(4) %8)
  %33 = udiv i32 %32, 32
  %34 = zext i32 %33 to i64
  %35 = call noundef nonnull align 4 dereferenceable(4) ptr @_ZN4llvm25SmallVectorTemplateCommonIjvEixEm(ptr noundef nonnull align 8 dereferenceable(16) %29, i64 noundef %34)
  %36 = load i32, ptr %35, align 4
  %37 = or i32 %36, %28
  store i32 %37, ptr %35, align 4
  br label %38

38:                                               ; preds = %23
  %39 = call noundef nonnull align 8 dereferenceable(16) ptr @_ZN4llvm18MCRegAliasIteratorppEv(ptr noundef nonnull align 8 dereferenceable(16) %5)
  br label %21, !llvm.loop !4

40:                                               ; preds = %21
  ret void
}