; Function Attrs: mustprogress nounwind uwtable
define dso_local void @_ZN4llvm7CCState13MarkAllocatedEt(ptr nocapture noundef nonnull readonly align 8 dereferenceable(420) %0, i16 noundef zeroext %1) local_unnamed_addr #0 align 2 {
  %3 = getelementptr inbounds nuw i8, ptr %0, i64 16
  %4 = load ptr, ptr %3, align 8
  %5 = icmp eq ptr %4, null
  %6 = getelementptr inbounds i8, ptr %4, i64 8
  %spec.select = select i1 %5, ptr null, ptr %6
  %7 = tail call { ptr, i64 } @_ZNK4llvm14MCRegisterInfo18getCachedAliasesOfEt(ptr noundef nonnull align 8 dereferenceable(224) %spec.select, i16 noundef zeroext %1) #10
  %8 = extractvalue { ptr, i64 } %7, 0
  %9 = extractvalue { ptr, i64 } %7, 1
  %10 = getelementptr inbounds i16, ptr %8, i64 %9
  %.not7 = icmp eq i64 %9, 0
  br i1 %.not7, label %._crit_edge, label %.lr.ph

.lr.ph:                                           ; preds = %2
  %11 = getelementptr inbounds nuw i8, ptr %0, i64 64
  br label %12

12:                                               ; preds = %.lr.ph, %12
  %.sroa.03.08 = phi ptr [ %8, %.lr.ph ], [ %23, %12 ]
  %13 = load i16, ptr %.sroa.03.08, align 2
  %14 = zext i16 %13 to i32
  %15 = and i32 %14, 31
  %16 = shl nuw i32 1, %15
  %17 = lshr i32 %14, 5
  %18 = zext nneg i32 %17 to i64
  %19 = load ptr, ptr %11, align 8
  %20 = getelementptr inbounds i32, ptr %19, i64 %18
  %21 = load i32, ptr %20, align 4
  %22 = or i32 %16, %21
  store i32 %22, ptr %20, align 4
  %23 = getelementptr inbounds i8, ptr %.sroa.03.08, i64 2
  %.not = icmp eq ptr %23, %10
  br i1 %.not, label %._crit_edge, label %12, !llvm.loop !7

._crit_edge:                                      ; preds = %12, %2
  ret void
}